; Function Attrs: nounwind uwtable
define internal void @xibufferview_dealloc(ptr noundef %0) #0 {
  %2 = getelementptr inbounds nuw i8, ptr %0, i64 24
  %3 = load i64, ptr %2, align 8, !tbaa !217
  %4 = tail call ptr @_PyInterpreterState_LookUpID(i64 noundef %3) #7
  %5 = getelementptr inbounds nuw i8, ptr %0, i64 16
  %6 = load ptr, ptr %5, align 8, !tbaa !219
  %7 = tail call i32 @_PyBuffer_ReleaseInInterpreterAndRawFree(ptr noundef %4, ptr noundef %6) #7
  %8 = icmp slt i32 %7, 0
  br i1 %8, label %9, label %10

9:                                                ; preds = %1
  tail call void @PyErr_Clear() #7
  br label %10

10:                                               ; preds = %9, %1
  %11 = getelementptr i8, ptr %0, i64 8
  %.val = load ptr, ptr %11, align 8, !tbaa !23
  %12 = getelementptr inbounds nuw i8, ptr %.val, i64 320
  %13 = load ptr, ptr %12, align 8, !tbaa !220
  tail call void %13(ptr noundef nonnull %0) #7
  %14 = load i32, ptr %.val, align 8, !tbaa !11
  %.not.i = icmp sgt i32 %14, -1
  br i1 %.not.i, label %15, label %Py_DECREF.exit

15:                                               ; preds = %10
  %16 = add nsw i32 %14, -1
  store i32 %16, ptr %.val, align 8, !tbaa !11
  %17 = icmp eq i32 %16, 0
  br i1 %17, label %18, label %Py_DECREF.exit

18:                                               ; preds = %15
  tail call void @_Py_Dealloc(ptr noundef nonnull %.val) #7
  br label %Py_DECREF.exit

Py_DECREF.exit:                                   ; preds = %10, %15, %18
  ret void
}